target datalayout = "e-m:e-p270:32:32-p271:32:32-p272:64:64-i64:64-i128:128-f80:128-n8:16:32:64-S128"
target triple = "x86_64-pc-linux-gnu"

@.str.14 = private unnamed_addr constant [5 x i8] c"%04x\00", align 1

; Function Attrs: nounwind uwtable
define dso_local void @send_sideband(i32 noundef %0, i32 noundef %1, ptr noundef %2, i64 noundef %3, i32 noundef %4) #0 {
  %6 = alloca i32, align 4
  %7 = alloca i32, align 4
  %8 = alloca ptr, align 8
  %9 = alloca i64, align 8
  %10 = alloca i32, align 4
  %11 = alloca ptr, align 8
  %12 = alloca i32, align 4
  %13 = alloca [5 x i8], align 1
  store i32 %0, ptr %6, align 4, !tbaa !11
  store i32 %1, ptr %7, align 4, !tbaa !11
  store ptr %2, ptr %8, align 8, !tbaa !9
  store i64 %3, ptr %9, align 8, !tbaa !30
  store i32 %4, ptr %10, align 4, !tbaa !11
  call void @llvm.lifetime.start.p0(i64 8, ptr %11) #8
  %14 = load ptr, ptr %8, align 8, !tbaa !9
  store ptr %14, ptr %11, align 8, !tbaa !9
  br label %15

15:                                               ; preds = %48, %5
  %16 = load i64, ptr %9, align 8, !tbaa !30
  %17 = icmp ne i64 %16, 0
  br i1 %17, label %18, label %61

18:                                               ; preds = %15
  call void @llvm.lifetime.start.p0(i64 4, ptr %12) #8
  call void @llvm.lifetime.start.p0(i64 5, ptr %13) #8
  %19 = load i64, ptr %9, align 8, !tbaa !30
  %20 = trunc i64 %19 to i32
  store i32 %20, ptr %12, align 4, !tbaa !11
  %21 = load i32, ptr %10, align 4, !tbaa !11
  %22 = sub nsw i32 %21, 5
  %23 = load i32, ptr %12, align 4, !tbaa !11
  %24 = icmp ult i32 %22, %23
  br i1 %24, label %25, label %28

25:                                               ; preds = %18
  %26 = load i32, ptr %10, align 4, !tbaa !11
  %27 = sub nsw i32 %26, 5
  store i32 %27, ptr %12, align 4, !tbaa !11
  br label %28

28:                                               ; preds = %25, %18
  %29 = load i32, ptr %7, align 4, !tbaa !11
  %30 = icmp sle i32 0, %29
  br i1 %30, label %31, label %41

31:                                               ; preds = %28
  %32 = getelementptr inbounds [5 x i8], ptr %13, i64 0, i64 0
  %33 = load i32, ptr %12, align 4, !tbaa !11
  %34 = add i32 %33, 5
  %35 = call i32 (ptr, i64, ptr, ...) @xsnprintf(ptr noundef %32, i64 noundef 5, ptr noundef @.str.14, i32 noundef %34)
  %36 = load i32, ptr %7, align 4, !tbaa !11
  %37 = trunc i32 %36 to i8
  %38 = getelementptr inbounds [5 x i8], ptr %13, i64 0, i64 4
  store i8 %37, ptr %38, align 1, !tbaa !23
  %39 = load i32, ptr %6, align 4, !tbaa !11
  %40 = getelementptr inbounds [5 x i8], ptr %13, i64 0, i64 0
  call void @write_or_die(i32 noundef %39, ptr noundef %40, i64 noundef 5)
  br label %48

41:                                               ; preds = %28
  %42 = getelementptr inbounds [5 x i8], ptr %13, i64 0, i64 0
  %43 = load i32, ptr %12, align 4, !tbaa !11
  %44 = add i32 %43, 4
  %45 = call i32 (ptr, i64, ptr, ...) @xsnprintf(ptr noundef %42, i64 noundef 5, ptr noundef @.str.14, i32 noundef %44)
  %46 = load i32, ptr %6, align 4, !tbaa !11
  %47 = getelementptr inbounds [5 x i8], ptr %13, i64 0, i64 0
  call void @write_or_die(i32 noundef %46, ptr noundef %47, i64 noundef 4)
  br label %48

48:                                               ; preds = %41, %31
  %49 = load i32, ptr %6, align 4, !tbaa !11
  %50 = load ptr, ptr %11, align 8, !tbaa !9
  %51 = load i32, ptr %12, align 4, !tbaa !11
  %52 = zext i32 %51 to i64
  call void @write_or_die(i32 noundef %49, ptr noundef %50, i64 noundef %52)
  %53 = load i32, ptr %12, align 4, !tbaa !11
  %54 = load ptr, ptr %11, align 8, !tbaa !9
  %55 = zext i32 %53 to i64
  %56 = getelementptr inbounds nuw i8, ptr %54, i64 %55
  store ptr %56, ptr %11, align 8, !tbaa !9
  %57 = load i32, ptr %12, align 4, !tbaa !11
  %58 = zext i32 %57 to i64
  %59 = load i64, ptr %9, align 8, !tbaa !30
  %60 = sub nsw i64 %59, %58
  store i64 %60, ptr %9, align 8, !tbaa !30
  call void @llvm.lifetime.end.p0(i64 5, ptr %13) #8
  call void @llvm.lifetime.end.p0(i64 4, ptr %12) #8
  br label %15, !llvm.loop !32

61:                                               ; preds = %15
  call void @llvm.lifetime.end.p0(i64 8, ptr %11) #8
  ret void
}