; Function Attrs: nounwind uwtable
define dso_local void @send_sideband(i32 noundef %0, i32 noundef %1, ptr noundef %2, i64 noundef %3, i32 noundef %4) local_unnamed_addr #0 {
  %6 = alloca [5 x i8], align 1
  %.not23 = icmp eq i64 %3, 0
  br i1 %.not23, label %._crit_edge, label %.lr.ph

.lr.ph:                                           ; preds = %5
  %7 = add nsw i32 %4, -5
  %8 = icmp sgt i32 %1, -1
  %9 = trunc i32 %1 to i8
  %10 = getelementptr inbounds nuw i8, ptr %6, i64 4
  br i1 %8, label %.lr.ph.split.us, label %.lr.ph.split

.lr.ph.split.us:                                  ; preds = %.lr.ph, %.lr.ph.split.us
  %.01825.us = phi ptr [ %15, %.lr.ph.split.us ], [ %2, %.lr.ph ]
  %.01924.us = phi i64 [ %16, %.lr.ph.split.us ], [ %3, %.lr.ph ]
  call void @llvm.lifetime.start.p0(i64 5, ptr nonnull %6) #10
  %11 = trunc i64 %.01924.us to i32
  %spec.select.us = call i32 @llvm.umin.i32(i32 %7, i32 %11)
  %12 = add i32 %spec.select.us, 5
  %13 = call i32 (ptr, i64, ptr, ...) @xsnprintf(ptr noundef nonnull %6, i64 noundef 5, ptr noundef nonnull @.str.14, i32 noundef %12) #10
  store i8 %9, ptr %10, align 1, !tbaa !16
  call void @write_or_die(i32 noundef %0, ptr noundef nonnull %6, i64 noundef 5) #10
  %14 = zext i32 %spec.select.us to i64
  call void @write_or_die(i32 noundef %0, ptr noundef %.01825.us, i64 noundef %14) #10
  %15 = getelementptr inbounds nuw i8, ptr %.01825.us, i64 %14
  %16 = sub nsw i64 %.01924.us, %14
  call void @llvm.lifetime.end.p0(i64 5, ptr nonnull %6) #10
  %.not.us = icmp eq i64 %16, 0
  br i1 %.not.us, label %._crit_edge, label %.lr.ph.split.us, !llvm.loop !27

.lr.ph.split:                                     ; preds = %.lr.ph, %.lr.ph.split
  %.01825 = phi ptr [ %21, %.lr.ph.split ], [ %2, %.lr.ph ]
  %.01924 = phi i64 [ %22, %.lr.ph.split ], [ %3, %.lr.ph ]
  call void @llvm.lifetime.start.p0(i64 5, ptr nonnull %6) #10
  %17 = trunc i64 %.01924 to i32
  %spec.select = call i32 @llvm.umin.i32(i32 %7, i32 %17)
  %18 = add i32 %spec.select, 4
  %19 = call i32 (ptr, i64, ptr, ...) @xsnprintf(ptr noundef nonnull %6, i64 noundef 5, ptr noundef nonnull @.str.14, i32 noundef %18) #10
  call void @write_or_die(i32 noundef %0, ptr noundef nonnull %6, i64 noundef 4) #10
  %20 = zext i32 %spec.select to i64
  call void @write_or_die(i32 noundef %0, ptr noundef %.01825, i64 noundef %20) #10
  %21 = getelementptr inbounds nuw i8, ptr %.01825, i64 %20
  %22 = sub nsw i64 %.01924, %20
  call void @llvm.lifetime.end.p0(i64 5, ptr nonnull %6) #10
  %.not = icmp eq i64 %22, 0
  br i1 %.not, label %._crit_edge, label %.lr.ph.split, !llvm.loop !27

._crit_edge:                                      ; preds = %.lr.ph.split, %.lr.ph.split.us, %5
  ret void
}